target datalayout = "e-m:e-p270:32:32-p271:32:32-p272:64:64-i64:64-i128:128-f80:128-n8:16:32:64-S128"
target triple = "x86_64-pc-linux-gnu"

%"struct.boost::atomics::detail::lock_pool::(anonymous namespace)::wait_state_list" = type { ptr, i8 }
%"struct.boost::atomics::detail::lock_pool::(anonymous namespace)::wait_state_list::header" = type { i64, i64 }

; Function Attrs: mustprogress nounwind uwtable
define internal noundef ptr @_ZN5boost7atomics6detail9lock_pool12_GLOBAL__N_115wait_state_list15get_wait_statesEPPVKvm(ptr noundef %0, i64 noundef %1) #0 align 2 {
  %3 = alloca ptr, align 8
  %4 = alloca i64, align 8
  store ptr %0, ptr %3, align 8, !tbaa !3
  store i64 %1, ptr %4, align 8, !tbaa !7
  %5 = load ptr, ptr %3, align 8, !tbaa !3
  %6 = load i64, ptr %4, align 8, !tbaa !7
  %7 = getelementptr inbounds nuw ptr, ptr %5, i64 %6
  ret ptr %7
}

; Function Attrs: mustprogress nounwind uwtable
define internal noundef ptr @_ZN5boost7atomics6detail9lock_pool12_GLOBAL__N_115wait_state_list19get_atomic_pointersEPNS4_6headerE(ptr noundef %0) #0 align 2 {
  %2 = alloca ptr, align 8
  store ptr %0, ptr %2, align 8, !tbaa !3
  %3 = load ptr, ptr %2, align 8, !tbaa !3
  %4 = getelementptr inbounds nuw i8, ptr %3, i64 16
  ret ptr %4
}

; Function Attrs: mustprogress nounwind uwtable
define internal noundef ptr @_ZN5boost7atomics6detail9lock_pool12_GLOBAL__N_115wait_state_list15get_wait_statesEPNS4_6headerE(ptr noundef %0) #0 align 2 {
  %2 = alloca ptr, align 8
  store ptr %0, ptr %2, align 8, !tbaa !3
  %3 = load ptr, ptr %2, align 8, !tbaa !3
  %4 = call noundef ptr @_ZN5boost7atomics6detail9lock_pool12_GLOBAL__N_115wait_state_list19get_atomic_pointersEPNS4_6headerE(ptr noundef %3) #14
  %5 = load ptr, ptr %2, align 8, !tbaa !3
  %6 = getelementptr inbounds nuw %"struct.boost::atomics::detail::lock_pool::(anonymous namespace)::wait_state_list::header", ptr %5, i32 0, i32 1
  %7 = load i64, ptr %6, align 8, !tbaa !23
  %8 = call noundef ptr @_ZN5boost7atomics6detail9lock_pool12_GLOBAL__N_115wait_state_list15get_wait_statesEPPVKvm(ptr noundef %4, i64 noundef %7) #14
  ret ptr %8
}

; Function Attrs: inlinehint mustprogress nounwind uwtable
define linkonce_odr hidden void @_ZN5boost9alignment12aligned_freeEPv(ptr noundef %0) #3 comdat {
  %2 = alloca ptr, align 8
  store ptr %0, ptr %2, align 8, !tbaa !3
  %3 = load ptr, ptr %2, align 8, !tbaa !3
  call void @free(ptr noundef %3) #14
  ret void
}

; Function Attrs: mustprogress nounwind uwtable
define internal noundef ptr @_ZNK5boost7atomics6detail9lock_pool12_GLOBAL__N_115wait_state_list15get_wait_statesEv(ptr noundef nonnull align 8 dereferenceable(16) %0) #0 align 2 {
  %2 = alloca ptr, align 8
  store ptr %0, ptr %2, align 8, !tbaa !3
  %3 = load ptr, ptr %2, align 8
  %4 = getelementptr inbounds nuw %"struct.boost::atomics::detail::lock_pool::(anonymous namespace)::wait_state_list", ptr %3, i32 0, i32 0
  %5 = load ptr, ptr %4, align 8, !tbaa !18
  %6 = call noundef ptr @_ZN5boost7atomics6detail9lock_pool12_GLOBAL__N_115wait_state_list15get_wait_statesEPNS4_6headerE(ptr noundef %5) #14
  ret ptr %6
}

; Function Attrs: mustprogress nounwind uwtable
define internal void @_ZN5boost7atomics6detail9lock_pool12_GLOBAL__N_115wait_state_list10free_spareEv(ptr noundef nonnull align 8 dereferenceable(16) %0) #0 align 2 {
  %2 = alloca ptr, align 8
  %3 = alloca ptr, align 8
  %4 = alloca i64, align 8
  %5 = alloca i64, align 8
  %6 = alloca i32, align 4
  %7 = alloca ptr, align 8
  store ptr %0, ptr %2, align 8, !tbaa !3
  %8 = load ptr, ptr %2, align 8
  %9 = getelementptr inbounds nuw %"struct.boost::atomics::detail::lock_pool::(anonymous namespace)::wait_state_list", ptr %8, i32 0, i32 0
  %10 = load ptr, ptr %9, align 8, !tbaa !18
  %11 = icmp ne ptr %10, null
  %12 = zext i1 %11 to i64
  %13 = call i64 @llvm.expect.i64(i64 %12, i64 1)
  %14 = icmp ne i64 %13, 0
  br i1 %14, label %15, label %64

15:                                               ; preds = %1
  call void @llvm.lifetime.start.p0(i64 8, ptr %3) #14
  %16 = call noundef ptr @_ZNK5boost7atomics6detail9lock_pool12_GLOBAL__N_115wait_state_list15get_wait_statesEv(ptr noundef nonnull align 8 dereferenceable(16) %8) #14
  store ptr %16, ptr %3, align 8, !tbaa !3
  call void @llvm.lifetime.start.p0(i64 8, ptr %4) #14
  %17 = getelementptr inbounds nuw %"struct.boost::atomics::detail::lock_pool::(anonymous namespace)::wait_state_list", ptr %8, i32 0, i32 0
  %18 = load ptr, ptr %17, align 8, !tbaa !18
  %19 = getelementptr inbounds nuw %"struct.boost::atomics::detail::lock_pool::(anonymous namespace)::wait_state_list::header", ptr %18, i32 0, i32 0
  %20 = load i64, ptr %19, align 8, !tbaa !21
  store i64 %20, ptr %4, align 8, !tbaa !7
  call void @llvm.lifetime.start.p0(i64 8, ptr %5) #14
  %21 = getelementptr inbounds nuw %"struct.boost::atomics::detail::lock_pool::(anonymous namespace)::wait_state_list", ptr %8, i32 0, i32 0
  %22 = load ptr, ptr %21, align 8, !tbaa !18
  %23 = getelementptr inbounds nuw %"struct.boost::atomics::detail::lock_pool::(anonymous namespace)::wait_state_list::header", ptr %22, i32 0, i32 1
  %24 = load i64, ptr %23, align 8, !tbaa !23
  store i64 %24, ptr %5, align 8, !tbaa !7
  br label %25

25:                                               ; preds = %49, %15
  %26 = load i64, ptr %4, align 8, !tbaa !7
  %27 = load i64, ptr %5, align 8, !tbaa !7
  %28 = icmp ult i64 %26, %27
  br i1 %28, label %30, label %29

29:                                               ; preds = %25
  store i32 2, ptr %6, align 4
  br label %52

30:                                               ; preds = %25
  call void @llvm.lifetime.start.p0(i64 8, ptr %7) #14
  %31 = load ptr, ptr %3, align 8, !tbaa !3
  %32 = load i64, ptr %4, align 8, !tbaa !7
  %33 = getelementptr inbounds nuw ptr, ptr %31, i64 %32
  %34 = load ptr, ptr %33, align 8, !tbaa !3
  store ptr %34, ptr %7, align 8, !tbaa !3
  %35 = load ptr, ptr %7, align 8, !tbaa !3
  %36 = icmp ne ptr %35, null
  br i1 %36, label %38, label %37

37:                                               ; preds = %30
  store i32 2, ptr %6, align 4
  br label %46

38:                                               ; preds = %30
  %39 = load ptr, ptr %7, align 8, !tbaa !3
  %40 = icmp eq ptr %39, null
  br i1 %40, label %42, label %41

41:                                               ; preds = %38
  call void @_ZdlPvm(ptr noundef %39, i64 noundef 24) #17
  br label %42

42:                                               ; preds = %41, %38
  %43 = load ptr, ptr %3, align 8, !tbaa !3
  %44 = load i64, ptr %4, align 8, !tbaa !7
  %45 = getelementptr inbounds nuw ptr, ptr %43, i64 %44
  store ptr null, ptr %45, align 8, !tbaa !3
  store i32 0, ptr %6, align 4
  br label %46

46:                                               ; preds = %42, %37
  call void @llvm.lifetime.end.p0(i64 8, ptr %7) #14
  %47 = load i32, ptr %6, align 4
  switch i32 %47, label %52 [
    i32 0, label %48
  ]

48:                                               ; preds = %46
  br label %49

49:                                               ; preds = %48
  %50 = load i64, ptr %4, align 8, !tbaa !7
  %51 = add i64 %50, 1
  store i64 %51, ptr %4, align 8, !tbaa !7
  br label %25, !llvm.loop !43

52:                                               ; preds = %46, %29
  call void @llvm.lifetime.end.p0(i64 8, ptr %5) #14
  call void @llvm.lifetime.end.p0(i64 8, ptr %4) #14
  br label %53

53:                                               ; preds = %52
  %54 = getelementptr inbounds nuw %"struct.boost::atomics::detail::lock_pool::(anonymous namespace)::wait_state_list", ptr %8, i32 0, i32 0
  %55 = load ptr, ptr %54, align 8, !tbaa !18
  %56 = getelementptr inbounds nuw %"struct.boost::atomics::detail::lock_pool::(anonymous namespace)::wait_state_list::header", ptr %55, i32 0, i32 0
  %57 = load i64, ptr %56, align 8, !tbaa !21
  %58 = icmp eq i64 %57, 0
  br i1 %58, label %59, label %63

59:                                               ; preds = %53
  %60 = getelementptr inbounds nuw %"struct.boost::atomics::detail::lock_pool::(anonymous namespace)::wait_state_list", ptr %8, i32 0, i32 0
  %61 = load ptr, ptr %60, align 8, !tbaa !18
  call void @_ZN5boost9alignment12aligned_freeEPv(ptr noundef %61) #14
  %62 = getelementptr inbounds nuw %"struct.boost::atomics::detail::lock_pool::(anonymous namespace)::wait_state_list", ptr %8, i32 0, i32 0
  store ptr null, ptr %62, align 8, !tbaa !18
  br label %63

63:                                               ; preds = %59, %53
  call void @llvm.lifetime.end.p0(i64 8, ptr %3) #14
  br label %64

64:                                               ; preds = %63, %1
  ret void
}