; Function Attrs: mustprogress nounwind uwtable
define internal fastcc void @_ZN5boost7atomics6detail9lock_pool12_GLOBAL__N_115wait_state_list10free_spareEv(ptr nocapture noundef nonnull align 8 dereferenceable(16) %0) unnamed_addr #2 align 2 {
  %2 = load ptr, ptr %0, align 8, !tbaa !13
  %.not = icmp eq ptr %2, null
  br i1 %.not, label %18, label %3, !prof !16

3:                                                ; preds = %1
  %4 = getelementptr inbounds nuw i8, ptr %2, i64 16
  %5 = getelementptr inbounds nuw i8, ptr %2, i64 8
  %6 = load i64, ptr %5, align 8, !tbaa !20
  %7 = getelementptr inbounds nuw ptr, ptr %4, i64 %6
  %8 = load i64, ptr %2, align 8, !tbaa !17
  %9 = icmp ult i64 %8, %6
  br i1 %9, label %.lr.ph, label %.critedge

.lr.ph:                                           ; preds = %3, %12
  %.013 = phi i64 [ %13, %12 ], [ %8, %3 ]
  %10 = getelementptr inbounds nuw ptr, ptr %7, i64 %.013
  %11 = load ptr, ptr %10, align 8, !tbaa !3
  %.not12.not = icmp eq ptr %11, null
  br i1 %.not12.not, label %.critedge.loopexit, label %12

12:                                               ; preds = %.lr.ph
  tail call void @_ZdlPvm(ptr noundef nonnull %11, i64 noundef 24) #20
  store ptr null, ptr %10, align 8, !tbaa !3
  %13 = add i64 %.013, 1
  %exitcond.not = icmp eq i64 %13, %6
  br i1 %exitcond.not, label %.critedge.loopexit, label %.lr.ph, !llvm.loop !38

.critedge.loopexit:                               ; preds = %.lr.ph, %12
  %.pre = load ptr, ptr %0, align 8, !tbaa !13
  %.pre15 = load i64, ptr %.pre, align 8, !tbaa !17
  br label %.critedge

.critedge:                                        ; preds = %.critedge.loopexit, %3
  %14 = phi i64 [ %.pre15, %.critedge.loopexit ], [ %8, %3 ]
  %15 = phi ptr [ %.pre, %.critedge.loopexit ], [ %2, %3 ]
  %16 = icmp eq i64 %14, 0
  br i1 %16, label %17, label %18

17:                                               ; preds = %.critedge
  tail call void @free(ptr noundef nonnull %15) #17
  store ptr null, ptr %0, align 8, !tbaa !13
  br label %18

18:                                               ; preds = %.critedge, %17, %1
  ret void
}